target datalayout = "e-m:e-p270:32:32-p271:32:32-p272:64:64-i64:64-i128:128-f80:128-n8:16:32:64-S128"
target triple = "x86_64-pc-linux-gnu"

%struct._object = type { %union.anon, ptr }
%union.anon = type { i64 }
%struct.anon = type { i32, i32 }

@_Py_NoneStruct = external global %struct._object, align 8
@.str.56 = private unnamed_addr constant [3 x i8] c"id\00", align 1

; Function Attrs: alwaysinline nounwind uwtable
define internal i32 @_Py_IsImmortal(ptr noundef %0) #5 {
  %2 = alloca ptr, align 8
  store ptr %0, ptr %2, align 8, !tbaa !3
  %3 = load ptr, ptr %2, align 8, !tbaa !3
  %4 = getelementptr inbounds nuw %struct._object, ptr %3, i32 0, i32 0
  %5 = getelementptr inbounds nuw %struct.anon, ptr %4, i32 0, i32 0
  %6 = load i32, ptr %5, align 8, !tbaa !52
  %7 = icmp slt i32 %6, 0
  %8 = zext i1 %7 to i32
  ret i32 %8
}

; Function Attrs: inlinehint nounwind uwtable
define internal void @Py_XDECREF(ptr noundef %0) #3 {
  %2 = alloca ptr, align 8
  store ptr %0, ptr %2, align 8, !tbaa !3
  %3 = load ptr, ptr %2, align 8, !tbaa !3
  %4 = icmp ne ptr %3, null
  br i1 %4, label %5, label %7

5:                                                ; preds = %1
  %6 = load ptr, ptr %2, align 8, !tbaa !3
  call void @Py_DECREF(ptr noundef %6)
  br label %7

7:                                                ; preds = %5, %1
  ret void
}

; Function Attrs: alwaysinline nounwind uwtable
define internal void @Py_DECREF(ptr noundef %0) #5 {
  %2 = alloca ptr, align 8
  store ptr %0, ptr %2, align 8, !tbaa !3
  %3 = load ptr, ptr %2, align 8, !tbaa !3
  %4 = call i32 @_Py_IsImmortal(ptr noundef %3)
  %5 = icmp ne i32 %4, 0
  br i1 %5, label %6, label %7

6:                                                ; preds = %1
  br label %16

7:                                                ; preds = %1
  %8 = load ptr, ptr %2, align 8, !tbaa !3
  %9 = getelementptr inbounds nuw %struct._object, ptr %8, i32 0, i32 0
  %10 = getelementptr inbounds nuw %struct.anon, ptr %9, i32 0, i32 0
  %11 = load i32, ptr %10, align 8, !tbaa !52
  %12 = add i32 %11, -1
  store i32 %12, ptr %10, align 8, !tbaa !52
  %13 = icmp eq i32 %12, 0
  br i1 %13, label %14, label %16

14:                                               ; preds = %7
  %15 = load ptr, ptr %2, align 8, !tbaa !3
  call void @_Py_Dealloc(ptr noundef %15)
  br label %16

16:                                               ; preds = %6, %14, %7
  ret void
}

; Function Attrs: nounwind uwtable
define internal ptr @get_id(ptr noundef %0) #0 {
  %2 = alloca ptr, align 8
  %3 = alloca ptr, align 8
  %4 = alloca ptr, align 8
  %5 = alloca i32, align 4
  %6 = alloca ptr, align 8
  %7 = alloca ptr, align 8
  %8 = alloca [1 x ptr], align 8
  %9 = alloca ptr, align 8
  store ptr %0, ptr %3, align 8, !tbaa !3
  call void @llvm.lifetime.start.p0(i64 8, ptr %4) #6
  %10 = call ptr @PyEval_GetBuiltins()
  store ptr %10, ptr %4, align 8, !tbaa !3
  %11 = load ptr, ptr %4, align 8, !tbaa !3
  %12 = icmp eq ptr %11, null
  br i1 %12, label %13, label %14

13:                                               ; preds = %1
  store ptr null, ptr %2, align 8
  store i32 1, ptr %5, align 4
  br label %36

14:                                               ; preds = %1
  call void @llvm.lifetime.start.p0(i64 8, ptr %6) #6
  %15 = call ptr @PyUnicode_FromString(ptr noundef @.str.56)
  store ptr %15, ptr %6, align 8, !tbaa !3
  %16 = load ptr, ptr %6, align 8, !tbaa !3
  %17 = icmp eq ptr %16, null
  br i1 %17, label %18, label %19

18:                                               ; preds = %14
  store ptr null, ptr %2, align 8
  store i32 1, ptr %5, align 4
  br label %35

19:                                               ; preds = %14
  call void @llvm.lifetime.start.p0(i64 8, ptr %7) #6
  %20 = load ptr, ptr %4, align 8, !tbaa !3
  %21 = load ptr, ptr %6, align 8, !tbaa !3
  %22 = call ptr @PyObject_GetItem(ptr noundef %20, ptr noundef %21)
  store ptr %22, ptr %7, align 8, !tbaa !3
  %23 = load ptr, ptr %6, align 8, !tbaa !3
  call void @Py_DECREF(ptr noundef %23)
  %24 = load ptr, ptr %7, align 8, !tbaa !3
  %25 = icmp eq ptr %24, null
  br i1 %25, label %26, label %27

26:                                               ; preds = %19
  store ptr null, ptr %2, align 8
  store i32 1, ptr %5, align 4
  br label %34

27:                                               ; preds = %19
  call void @llvm.lifetime.start.p0(i64 8, ptr %8) #6
  %28 = load ptr, ptr %3, align 8, !tbaa !3
  store ptr %28, ptr %8, align 8, !tbaa !3
  call void @llvm.lifetime.start.p0(i64 8, ptr %9) #6
  %29 = load ptr, ptr %7, align 8, !tbaa !3
  %30 = getelementptr inbounds [1 x ptr], ptr %8, i64 0, i64 0
  %31 = call ptr @PyObject_Vectorcall(ptr noundef %29, ptr noundef %30, i64 noundef 1, ptr noundef null)
  store ptr %31, ptr %9, align 8, !tbaa !3
  %32 = load ptr, ptr %7, align 8, !tbaa !3
  call void @Py_DECREF(ptr noundef %32)
  %33 = load ptr, ptr %9, align 8, !tbaa !3
  store ptr %33, ptr %2, align 8
  store i32 1, ptr %5, align 4
  call void @llvm.lifetime.end.p0(i64 8, ptr %9) #6
  call void @llvm.lifetime.end.p0(i64 8, ptr %8) #6
  br label %34

34:                                               ; preds = %27, %26
  call void @llvm.lifetime.end.p0(i64 8, ptr %7) #6
  br label %35

35:                                               ; preds = %34, %18
  call void @llvm.lifetime.end.p0(i64 8, ptr %6) #6
  br label %36

36:                                               ; preds = %35, %13
  call void @llvm.lifetime.end.p0(i64 8, ptr %4) #6
  %37 = load ptr, ptr %2, align 8
  ret ptr %37
}

; Function Attrs: alwaysinline nounwind uwtable
define internal void @Py_INCREF(ptr noundef %0) #5 {
  %2 = alloca ptr, align 8
  %3 = alloca i32, align 4
  %4 = alloca i32, align 4
  store ptr %0, ptr %2, align 8, !tbaa !3
  call void @llvm.lifetime.start.p0(i64 4, ptr %3) #6
  %5 = load ptr, ptr %2, align 8, !tbaa !3
  %6 = getelementptr inbounds nuw %struct._object, ptr %5, i32 0, i32 0
  %7 = getelementptr inbounds nuw %struct.anon, ptr %6, i32 0, i32 0
  %8 = load i32, ptr %7, align 8, !tbaa !52
  store i32 %8, ptr %3, align 4, !tbaa !10
  %9 = load i32, ptr %3, align 4, !tbaa !10
  %10 = icmp slt i32 %9, 0
  br i1 %10, label %11, label %12

11:                                               ; preds = %1
  store i32 1, ptr %4, align 4
  br label %18

12:                                               ; preds = %1
  %13 = load i32, ptr %3, align 4, !tbaa !10
  %14 = add i32 %13, 1
  %15 = load ptr, ptr %2, align 8, !tbaa !3
  %16 = getelementptr inbounds nuw %struct._object, ptr %15, i32 0, i32 0
  %17 = getelementptr inbounds nuw %struct.anon, ptr %16, i32 0, i32 0
  store i32 %14, ptr %17, align 8, !tbaa !52
  store i32 0, ptr %4, align 4
  br label %18

18:                                               ; preds = %12, %11
  call void @llvm.lifetime.end.p0(i64 4, ptr %3) #6
  %19 = load i32, ptr %4, align 4
  switch i32 %19, label %21 [
    i32 0, label %20
    i32 1, label %20
  ]

20:                                               ; preds = %18, %18
  ret void

21:                                               ; preds = %18
  unreachable
}

; Function Attrs: nounwind uwtable
define internal i32 @call_pyfunc_watcher(ptr noundef %0, i32 noundef %1, ptr noundef %2, ptr noundef %3) #0 {
  %5 = alloca i32, align 4
  %6 = alloca ptr, align 8
  %7 = alloca i32, align 4
  %8 = alloca ptr, align 8
  %9 = alloca ptr, align 8
  %10 = alloca ptr, align 8
  %11 = alloca i32, align 4
  %12 = alloca ptr, align 8
  %13 = alloca [3 x ptr], align 16
  %14 = alloca ptr, align 8
  %15 = alloca i32, align 4
  store ptr %0, ptr %6, align 8, !tbaa !3
  store i32 %1, ptr %7, align 4, !tbaa !10
  store ptr %2, ptr %8, align 8, !tbaa !21
  store ptr %3, ptr %9, align 8, !tbaa !3
  call void @llvm.lifetime.start.p0(i64 8, ptr %10) #6
  %16 = load i32, ptr %7, align 4, !tbaa !10
  %17 = zext i32 %16 to i64
  %18 = call ptr @PyLong_FromLong(i64 noundef %17)
  store ptr %18, ptr %10, align 8, !tbaa !3
  %19 = load ptr, ptr %10, align 8, !tbaa !3
  %20 = icmp eq ptr %19, null
  br i1 %20, label %21, label %22

21:                                               ; preds = %4
  store i32 -1, ptr %5, align 4
  store i32 1, ptr %11, align 4
  br label %60

22:                                               ; preds = %4
  %23 = load ptr, ptr %9, align 8, !tbaa !3
  %24 = icmp eq ptr %23, null
  br i1 %24, label %25, label %26

25:                                               ; preds = %22
  store ptr @_Py_NoneStruct, ptr %9, align 8, !tbaa !3
  br label %26

26:                                               ; preds = %25, %22
  %27 = load ptr, ptr %9, align 8, !tbaa !3
  call void @Py_INCREF(ptr noundef %27)
  call void @llvm.lifetime.start.p0(i64 8, ptr %12) #6
  store ptr null, ptr %12, align 8, !tbaa !3
  %28 = load i32, ptr %7, align 4, !tbaa !10
  %29 = icmp eq i32 %28, 1
  br i1 %29, label %30, label %39

30:                                               ; preds = %26
  %31 = load ptr, ptr %8, align 8, !tbaa !21
  %32 = call ptr @get_id(ptr noundef %31)
  store ptr %32, ptr %12, align 8, !tbaa !3
  %33 = load ptr, ptr %12, align 8, !tbaa !3
  %34 = icmp eq ptr %33, null
  br i1 %34, label %35, label %38

35:                                               ; preds = %30
  %36 = load ptr, ptr %10, align 8, !tbaa !3
  call void @Py_DECREF(ptr noundef %36)
  %37 = load ptr, ptr %9, align 8, !tbaa !3
  call void @Py_DECREF(ptr noundef %37)
  store i32 -1, ptr %5, align 4
  store i32 1, ptr %11, align 4
  br label %59

38:                                               ; preds = %30
  br label %42

39:                                               ; preds = %26
  %40 = load ptr, ptr %8, align 8, !tbaa !21
  call void @Py_INCREF(ptr noundef %40)
  %41 = load ptr, ptr %8, align 8, !tbaa !21
  store ptr %41, ptr %12, align 8, !tbaa !3
  br label %42

42:                                               ; preds = %39, %38
  call void @llvm.lifetime.start.p0(i64 24, ptr %13) #6
  %43 = load ptr, ptr %10, align 8, !tbaa !3
  store ptr %43, ptr %13, align 8, !tbaa !3
  %44 = getelementptr inbounds ptr, ptr %13, i64 1
  %45 = load ptr, ptr %12, align 8, !tbaa !3
  store ptr %45, ptr %44, align 8, !tbaa !3
  %46 = getelementptr inbounds ptr, ptr %13, i64 2
  %47 = load ptr, ptr %9, align 8, !tbaa !3
  store ptr %47, ptr %46, align 8, !tbaa !3
  call void @llvm.lifetime.start.p0(i64 8, ptr %14) #6
  %48 = load ptr, ptr %6, align 8, !tbaa !3
  %49 = getelementptr inbounds [3 x ptr], ptr %13, i64 0, i64 0
  %50 = call ptr @PyObject_Vectorcall(ptr noundef %48, ptr noundef %49, i64 noundef 3, ptr noundef null)
  store ptr %50, ptr %14, align 8, !tbaa !3
  call void @llvm.lifetime.start.p0(i64 4, ptr %15) #6
  %51 = load ptr, ptr %14, align 8, !tbaa !3
  %52 = icmp eq ptr %51, null
  %53 = select i1 %52, i32 -1, i32 0
  store i32 %53, ptr %15, align 4, !tbaa !10
  %54 = load ptr, ptr %14, align 8, !tbaa !3
  call void @Py_XDECREF(ptr noundef %54)
  %55 = load ptr, ptr %9, align 8, !tbaa !3
  call void @Py_DECREF(ptr noundef %55)
  %56 = load ptr, ptr %10, align 8, !tbaa !3
  call void @Py_DECREF(ptr noundef %56)
  %57 = load ptr, ptr %12, align 8, !tbaa !3
  call void @Py_DECREF(ptr noundef %57)
  %58 = load i32, ptr %15, align 4, !tbaa !10
  store i32 %58, ptr %5, align 4
  store i32 1, ptr %11, align 4
  call void @llvm.lifetime.end.p0(i64 4, ptr %15) #6
  call void @llvm.lifetime.end.p0(i64 8, ptr %14) #6
  call void @llvm.lifetime.end.p0(i64 24, ptr %13) #6
  br label %59

59:                                               ; preds = %42, %35
  call void @llvm.lifetime.end.p0(i64 8, ptr %12) #6
  br label %60

60:                                               ; preds = %59, %21
  call void @llvm.lifetime.end.p0(i64 8, ptr %10) #6
  %61 = load i32, ptr %5, align 4
  ret i32 %61
}