; Function Attrs: nounwind uwtable
define internal fastcc range(i32 -1, 1) i32 @call_pyfunc_watcher(ptr noundef %0, i32 noundef %1, ptr noundef %2, ptr noundef %3) unnamed_addr #0 {
  %5 = alloca [1 x ptr], align 8
  %6 = alloca [3 x ptr], align 16
  %7 = zext i32 %1 to i64
  %8 = tail call ptr @PyLong_FromLong(i64 noundef %7) #6
  %9 = icmp eq ptr %8, null
  br i1 %9, label %Py_DECREF.exit29, label %10

10:                                               ; preds = %4
  %11 = icmp eq ptr %3, null
  %spec.store.select = select i1 %11, ptr @_Py_NoneStruct, ptr %3
  %12 = load i32, ptr %spec.store.select, align 8, !tbaa !22
  %13 = icmp slt i32 %12, 0
  br i1 %13, label %Py_INCREF.exit36, label %14

14:                                               ; preds = %10
  %15 = add nuw i32 %12, 1
  store i32 %15, ptr %spec.store.select, align 8, !tbaa !22
  br label %Py_INCREF.exit36

Py_INCREF.exit36:                                 ; preds = %10, %14
  %16 = icmp eq i32 %1, 1
  br i1 %16, label %17, label %49

17:                                               ; preds = %Py_INCREF.exit36
  %18 = tail call ptr @PyEval_GetBuiltins() #6
  %19 = icmp eq ptr %18, null
  br i1 %19, label %get_id.exit.thread, label %20

20:                                               ; preds = %17
  %21 = tail call ptr @PyUnicode_FromString(ptr noundef nonnull @.str.56) #6
  %22 = icmp eq ptr %21, null
  br i1 %22, label %get_id.exit.thread, label %23

23:                                               ; preds = %20
  %24 = tail call ptr @PyObject_GetItem(ptr noundef nonnull %18, ptr noundef nonnull %21) #6
  %25 = load i32, ptr %21, align 8, !tbaa !22
  %.not.i14.i = icmp sgt i32 %25, -1
  br i1 %.not.i14.i, label %26, label %Py_DECREF.exit15.i

26:                                               ; preds = %23
  %27 = add nsw i32 %25, -1
  store i32 %27, ptr %21, align 8, !tbaa !22
  %28 = icmp eq i32 %27, 0
  br i1 %28, label %29, label %Py_DECREF.exit15.i

29:                                               ; preds = %26
  tail call void @_Py_Dealloc(ptr noundef nonnull %21) #6
  br label %Py_DECREF.exit15.i

Py_DECREF.exit15.i:                               ; preds = %29, %26, %23
  %30 = icmp eq ptr %24, null
  br i1 %30, label %get_id.exit.thread, label %31

31:                                               ; preds = %Py_DECREF.exit15.i
  call void @llvm.lifetime.start.p0(i64 8, ptr nonnull %5) #6
  store ptr %2, ptr %5, align 8, !tbaa !21
  %32 = call ptr @PyObject_Vectorcall(ptr noundef nonnull %24, ptr noundef nonnull %5, i64 noundef 1, ptr noundef null) #6
  %33 = load i32, ptr %24, align 8, !tbaa !22
  %.not.i.i = icmp sgt i32 %33, -1
  br i1 %.not.i.i, label %34, label %get_id.exit

34:                                               ; preds = %31
  %35 = add nsw i32 %33, -1
  store i32 %35, ptr %24, align 8, !tbaa !22
  %36 = icmp eq i32 %35, 0
  br i1 %36, label %37, label %get_id.exit

37:                                               ; preds = %34
  call void @_Py_Dealloc(ptr noundef nonnull %24) #6
  br label %get_id.exit

get_id.exit:                                      ; preds = %31, %34, %37
  call void @llvm.lifetime.end.p0(i64 8, ptr nonnull %5) #6
  %38 = icmp eq ptr %32, null
  br i1 %38, label %get_id.exit.thread, label %Py_INCREF.exit

get_id.exit.thread:                               ; preds = %Py_DECREF.exit15.i, %20, %17, %get_id.exit
  %39 = load i32, ptr %8, align 8, !tbaa !22
  %.not.i30 = icmp sgt i32 %39, -1
  br i1 %.not.i30, label %40, label %Py_DECREF.exit31

40:                                               ; preds = %get_id.exit.thread
  %41 = add nsw i32 %39, -1
  store i32 %41, ptr %8, align 8, !tbaa !22
  %42 = icmp eq i32 %41, 0
  br i1 %42, label %43, label %Py_DECREF.exit31

43:                                               ; preds = %40
  call void @_Py_Dealloc(ptr noundef nonnull %8) #6
  br label %Py_DECREF.exit31

Py_DECREF.exit31:                                 ; preds = %get_id.exit.thread, %40, %43
  %44 = load i32, ptr %spec.store.select, align 8, !tbaa !22
  %.not.i28 = icmp sgt i32 %44, -1
  br i1 %.not.i28, label %45, label %Py_DECREF.exit29

45:                                               ; preds = %Py_DECREF.exit31
  %46 = add nsw i32 %44, -1
  store i32 %46, ptr %spec.store.select, align 8, !tbaa !22
  %47 = icmp eq i32 %46, 0
  br i1 %47, label %48, label %Py_DECREF.exit29

48:                                               ; preds = %45
  call void @_Py_Dealloc(ptr noundef nonnull %spec.store.select) #6
  br label %Py_DECREF.exit29

49:                                               ; preds = %Py_INCREF.exit36
  %50 = load i32, ptr %2, align 8, !tbaa !22
  %51 = icmp slt i32 %50, 0
  br i1 %51, label %Py_INCREF.exit, label %52

52:                                               ; preds = %49
  %53 = add nuw i32 %50, 1
  store i32 %53, ptr %2, align 8, !tbaa !22
  br label %Py_INCREF.exit

Py_INCREF.exit:                                   ; preds = %52, %49, %get_id.exit
  %.021 = phi ptr [ %32, %get_id.exit ], [ %2, %49 ], [ %2, %52 ]
  call void @llvm.lifetime.start.p0(i64 24, ptr nonnull %6) #6
  store ptr %8, ptr %6, align 16, !tbaa !21
  %54 = getelementptr inbounds nuw i8, ptr %6, i64 8
  store ptr %.021, ptr %54, align 8, !tbaa !21
  %55 = getelementptr inbounds nuw i8, ptr %6, i64 16
  store ptr %spec.store.select, ptr %55, align 16, !tbaa !21
  %56 = call ptr @PyObject_Vectorcall(ptr noundef %0, ptr noundef nonnull %6, i64 noundef 3, ptr noundef null) #6
  %57 = icmp eq ptr %56, null
  %58 = sext i1 %57 to i32
  br i1 %57, label %Py_XDECREF.exit, label %59

59:                                               ; preds = %Py_INCREF.exit
  %60 = load i32, ptr %56, align 8, !tbaa !22
  %.not.i.i38 = icmp sgt i32 %60, -1
  br i1 %.not.i.i38, label %61, label %Py_XDECREF.exit

61:                                               ; preds = %59
  %62 = add nsw i32 %60, -1
  store i32 %62, ptr %56, align 8, !tbaa !22
  %63 = icmp eq i32 %62, 0
  br i1 %63, label %64, label %Py_XDECREF.exit

64:                                               ; preds = %61
  call void @_Py_Dealloc(ptr noundef nonnull %56) #6
  br label %Py_XDECREF.exit

Py_XDECREF.exit:                                  ; preds = %Py_INCREF.exit, %59, %61, %64
  %65 = load i32, ptr %spec.store.select, align 8, !tbaa !22
  %.not.i26 = icmp sgt i32 %65, -1
  br i1 %.not.i26, label %66, label %Py_DECREF.exit27

66:                                               ; preds = %Py_XDECREF.exit
  %67 = add nsw i32 %65, -1
  store i32 %67, ptr %spec.store.select, align 8, !tbaa !22
  %68 = icmp eq i32 %67, 0
  br i1 %68, label %69, label %Py_DECREF.exit27

69:                                               ; preds = %66
  call void @_Py_Dealloc(ptr noundef nonnull %spec.store.select) #6
  br label %Py_DECREF.exit27

Py_DECREF.exit27:                                 ; preds = %Py_XDECREF.exit, %66, %69
  %70 = load i32, ptr %8, align 8, !tbaa !22
  %.not.i24 = icmp sgt i32 %70, -1
  br i1 %.not.i24, label %71, label %Py_DECREF.exit25

71:                                               ; preds = %Py_DECREF.exit27
  %72 = add nsw i32 %70, -1
  store i32 %72, ptr %8, align 8, !tbaa !22
  %73 = icmp eq i32 %72, 0
  br i1 %73, label %74, label %Py_DECREF.exit25

74:                                               ; preds = %71
  call void @_Py_Dealloc(ptr noundef nonnull %8) #6
  br label %Py_DECREF.exit25

Py_DECREF.exit25:                                 ; preds = %Py_DECREF.exit27, %71, %74
  %75 = load i32, ptr %.021, align 8, !tbaa !22
  %.not.i = icmp sgt i32 %75, -1
  br i1 %.not.i, label %76, label %Py_DECREF.exit

76:                                               ; preds = %Py_DECREF.exit25
  %77 = add nsw i32 %75, -1
  store i32 %77, ptr %.021, align 8, !tbaa !22
  %78 = icmp eq i32 %77, 0
  br i1 %78, label %79, label %Py_DECREF.exit

79:                                               ; preds = %76
  call void @_Py_Dealloc(ptr noundef nonnull %.021) #6
  br label %Py_DECREF.exit

Py_DECREF.exit:                                   ; preds = %Py_DECREF.exit25, %76, %79
  call void @llvm.lifetime.end.p0(i64 24, ptr nonnull %6) #6
  br label %Py_DECREF.exit29

Py_DECREF.exit29:                                 ; preds = %48, %45, %Py_DECREF.exit31, %Py_DECREF.exit, %4
  %.0 = phi i32 [ -1, %4 ], [ %58, %Py_DECREF.exit ], [ -1, %Py_DECREF.exit31 ], [ -1, %45 ], [ -1, %48 ]
  ret i32 %.0
}